; Function Attrs: nounwind uwtable
define void @Gia_ManTestWordFileUnused(ptr noundef %0, ptr noundef %1, ptr noundef %2) local_unnamed_addr #0 {
  %4 = alloca ptr, align 8
  %5 = alloca ptr, align 8
  call void @llvm.lifetime.start.p0(i64 8, ptr nonnull %4) #21
  call void @llvm.lifetime.start.p0(i64 8, ptr nonnull %5) #21
  %6 = call i32 @Gia_ManReadBinaryFile(ptr noundef %1, ptr noundef nonnull %4, ptr noundef nonnull %5)
  %7 = getelementptr i8, ptr %0, i64 64
  %.val7 = load ptr, ptr %7, align 8, !tbaa !22
  %8 = getelementptr i8, ptr %.val7, i64 4
  %.val7.val = load i32, ptr %8, align 4, !tbaa !41
  %9 = shl nsw i32 %6, 3
  %10 = icmp eq i32 %.val7.val, %9
  br i1 %10, label %11, label %14

11:                                               ; preds = %3
  %12 = load ptr, ptr %4, align 8, !tbaa !47
  %13 = load ptr, ptr %5, align 8, !tbaa !48
  tail call void @Gia_ManCompareValues2(i32 poison, ptr noundef nonnull %0, ptr noundef %12, ptr noundef %13, ptr noundef %2)
  br label %16

14:                                               ; preds = %3
  %15 = tail call i32 (ptr, ...) @printf(ptr noundef nonnull dereferenceable(1) @.str.47, i32 noundef %.val7.val, i32 noundef %9)
  %.pre = load ptr, ptr %4, align 8, !tbaa !47
  br label %16

16:                                               ; preds = %14, %11
  %17 = phi ptr [ %.pre, %14 ], [ %12, %11 ]
  %18 = getelementptr inbounds nuw i8, ptr %17, i64 8
  %19 = load ptr, ptr %18, align 8, !tbaa !13
  %.not.i = icmp eq ptr %19, null
  br i1 %.not.i, label %Vec_WrdFree.exit, label %20

20:                                               ; preds = %16
  tail call void @free(ptr noundef nonnull %19) #21
  br label %Vec_WrdFree.exit

Vec_WrdFree.exit:                                 ; preds = %16, %20
  tail call void @free(ptr noundef nonnull %17) #21
  %21 = load ptr, ptr %5, align 8, !tbaa !48
  %22 = getelementptr inbounds nuw i8, ptr %21, i64 8
  %23 = load ptr, ptr %22, align 8, !tbaa !5
  %.not.i8 = icmp eq ptr %23, null
  br i1 %.not.i8, label %Vec_StrFree.exit, label %24

24:                                               ; preds = %Vec_WrdFree.exit
  tail call void @free(ptr noundef nonnull %23) #21
  br label %Vec_StrFree.exit

Vec_StrFree.exit:                                 ; preds = %Vec_WrdFree.exit, %24
  tail call void @free(ptr noundef nonnull %21) #21
  call void @llvm.lifetime.end.p0(i64 8, ptr nonnull %5) #21
  call void @llvm.lifetime.end.p0(i64 8, ptr nonnull %4) #21
  ret void
}